target datalayout = "e-m:e-p270:32:32-p271:32:32-p272:64:64-i64:64-i128:128-f80:128-n8:16:32:64-S128"
target triple = "x86_64-pc-linux-gnu"

%struct.dlist_head = type { %struct.dlist_node }
%struct.dlist_node = type { ptr, ptr }
%struct.ReplicationSlot = type { i8, i8, i32, i8, i8, i32, i32, %struct.ReplicationSlotPersistentData, %struct.LWLock, %struct.ConditionVariable, i32, i64, i64, i64, i64, i64 }
%struct.ReplicationSlotPersistentData = type { %struct.nameData, i32, i32, i32, i32, i64, i32, i64, i64, i8, %struct.nameData, i8, i8 }
%struct.nameData = type { [64 x i8] }
%struct.LWLock = type { i16, %struct.pg_atomic_uint32, %struct.proclist_head }
%struct.pg_atomic_uint32 = type { i32 }
%struct.proclist_head = type { i32, i32 }
%struct.ConditionVariable = type { i8, %struct.proclist_head }
%struct.ReorderBufferTXN = type { i32, i32, i32, ptr, i64, i64, i64, ptr, i64, i16, i64, %union.anon.4, ptr, i64, %struct.dlist_node, ptr, i32, i64, i64, %struct.dlist_head, %struct.dlist_head, i64, ptr, ptr, %struct.dlist_head, i32, i32, ptr, %struct.dlist_node, %struct.dlist_node, %struct.pairingheap_node, i64, i64, ptr }
%union.anon.4 = type { i64 }
%struct.pairingheap_node = type { ptr, ptr, ptr }

@MyReplicationSlot = external global ptr, align 8
@.str.6 = private unnamed_addr constant [16 x i8] c"reorderbuffer.c\00", align 1
@.str.8 = private unnamed_addr constant [12 x i8] c"pg_replslot\00", align 1
@wal_segment_size = external global i32, align 4
@.str.21 = private unnamed_addr constant [29 x i8] c"%s/%s/xid-%u-lsn-%X-%X.spill\00", align 1
@.str.33 = private unnamed_addr constant [31 x i8] c"could not remove file \22%s\22: %m\00", align 1
@__func__.ReorderBufferRestoreCleanup = private unnamed_addr constant [28 x i8] c"ReorderBufferRestoreCleanup\00", align 1

; Function Attrs: nounwind uwtable
define internal void @ReorderBufferSerializedPath(ptr noundef %0, ptr noundef %1, i32 noundef %2, i64 noundef %3) #0 {
  %5 = alloca ptr, align 8
  %6 = alloca ptr, align 8
  %7 = alloca i32, align 4
  %8 = alloca i64, align 8
  %9 = alloca i64, align 8
  %10 = alloca i32, align 4
  store ptr %0, ptr %5, align 8
  store ptr %1, ptr %6, align 8
  store i32 %2, ptr %7, align 4
  store i64 %3, ptr %8, align 8
  call void @llvm.lifetime.start.p0(i64 8, ptr %9) #13
  %11 = load i64, ptr %8, align 8
  %12 = load i32, ptr @wal_segment_size, align 4
  %13 = sext i32 %12 to i64
  %14 = mul i64 %11, %13
  %15 = add i64 %14, 0
  store i64 %15, ptr %9, align 8
  %16 = load ptr, ptr %5, align 8
  %17 = load ptr, ptr @MyReplicationSlot, align 8
  %18 = getelementptr inbounds nuw %struct.ReplicationSlot, ptr %17, i32 0, i32 7
  %19 = getelementptr inbounds nuw %struct.ReplicationSlotPersistentData, ptr %18, i32 0, i32 0
  %20 = getelementptr inbounds nuw %struct.nameData, ptr %19, i32 0, i32 0
  %21 = getelementptr inbounds [64 x i8], ptr %20, i64 0, i64 0
  %22 = load i32, ptr %7, align 4
  br label %23

23:                                               ; preds = %4
  br label %24

24:                                               ; preds = %23
  br label %25

25:                                               ; preds = %24
  store i32 1, ptr %10, align 4
  %26 = load i64, ptr %9, align 8
  %27 = lshr i64 %26, 32
  %28 = trunc i64 %27 to i32
  %29 = load i64, ptr %9, align 8
  %30 = trunc i64 %29 to i32
  %31 = call i32 (ptr, i64, ptr, ...) @pg_snprintf(ptr noundef %16, i64 noundef 1024, ptr noundef @.str.21, ptr noundef @.str.8, ptr noundef %21, i32 noundef %22, i32 noundef %28, i32 noundef %30)
  call void @llvm.lifetime.end.p0(i64 8, ptr %9) #13
  ret void
}

; Function Attrs: nounwind uwtable
define internal void @ReorderBufferRestoreCleanup(ptr noundef %0, ptr noundef %1) #0 {
  %3 = alloca ptr, align 8
  %4 = alloca ptr, align 8
  %5 = alloca i64, align 8
  %6 = alloca i64, align 8
  %7 = alloca i64, align 8
  %8 = alloca [1024 x i8], align 16
  store ptr %0, ptr %3, align 8
  store ptr %1, ptr %4, align 8
  call void @llvm.lifetime.start.p0(i64 8, ptr %5) #13
  call void @llvm.lifetime.start.p0(i64 8, ptr %6) #13
  call void @llvm.lifetime.start.p0(i64 8, ptr %7) #13
  %9 = load ptr, ptr %4, align 8
  %10 = getelementptr inbounds nuw %struct.ReorderBufferTXN, ptr %9, i32 0, i32 4
  %11 = load i64, ptr %10, align 8
  %12 = load i32, ptr @wal_segment_size, align 4
  %13 = sext i32 %12 to i64
  %14 = udiv i64 %11, %13
  store i64 %14, ptr %5, align 8
  %15 = load ptr, ptr %4, align 8
  %16 = getelementptr inbounds nuw %struct.ReorderBufferTXN, ptr %15, i32 0, i32 5
  %17 = load i64, ptr %16, align 8
  %18 = load i32, ptr @wal_segment_size, align 4
  %19 = sext i32 %18 to i64
  %20 = udiv i64 %17, %19
  store i64 %20, ptr %7, align 8
  %21 = load i64, ptr %5, align 8
  store i64 %21, ptr %6, align 8
  br label %22

22:                                               ; preds = %54, %2
  %23 = load i64, ptr %6, align 8
  %24 = load i64, ptr %7, align 8
  %25 = icmp ule i64 %23, %24
  br i1 %25, label %26, label %57

26:                                               ; preds = %22
  call void @llvm.lifetime.start.p0(i64 1024, ptr %8) #13
  %27 = getelementptr inbounds [1024 x i8], ptr %8, i64 0, i64 0
  %28 = load ptr, ptr @MyReplicationSlot, align 8
  %29 = load ptr, ptr %4, align 8
  %30 = getelementptr inbounds nuw %struct.ReorderBufferTXN, ptr %29, i32 0, i32 1
  %31 = load i32, ptr %30, align 4
  %32 = load i64, ptr %6, align 8
  call void @ReorderBufferSerializedPath(ptr noundef %27, ptr noundef %28, i32 noundef %31, i64 noundef %32)
  %33 = getelementptr inbounds [1024 x i8], ptr %8, i64 0, i64 0
  %34 = call i32 @unlink(ptr noundef %33) #13
  %35 = icmp ne i32 %34, 0
  br i1 %35, label %36, label %53

36:                                               ; preds = %26
  %37 = call ptr @__errno_location() #18
  %38 = load i32, ptr %37, align 4
  %39 = icmp ne i32 %38, 2
  br i1 %39, label %40, label %53

40:                                               ; preds = %36
  br label %41

41:                                               ; preds = %40
  br i1 true, label %42, label %44

42:                                               ; preds = %41
  %43 = call zeroext i1 @errstart_cold(i32 noundef 21, ptr noundef null) #15
  br i1 %43, label %46, label %50

44:                                               ; preds = %41
  %45 = call zeroext i1 @errstart(i32 noundef 21, ptr noundef null)
  br i1 %45, label %46, label %50

46:                                               ; preds = %44, %42
  %47 = call i32 @errcode_for_file_access()
  %48 = getelementptr inbounds [1024 x i8], ptr %8, i64 0, i64 0
  %49 = call i32 (ptr, ...) @errmsg(ptr noundef @.str.33, ptr noundef %48)
  call void @errfinish(ptr noundef @.str.6, i32 noundef 4712, ptr noundef @__func__.ReorderBufferRestoreCleanup)
  br label %50

50:                                               ; preds = %46, %44, %42
  unreachable

51:                                               ; No predecessors!
  br label %52

52:                                               ; preds = %51
  br label %53

53:                                               ; preds = %52, %36, %26
  call void @llvm.lifetime.end.p0(i64 1024, ptr %8) #13
  br label %54

54:                                               ; preds = %53
  %55 = load i64, ptr %6, align 8
  %56 = add i64 %55, 1
  store i64 %56, ptr %6, align 8
  br label %22, !llvm.loop !41

57:                                               ; preds = %22
  call void @llvm.lifetime.end.p0(i64 8, ptr %7) #13
  call void @llvm.lifetime.end.p0(i64 8, ptr %6) #13
  call void @llvm.lifetime.end.p0(i64 8, ptr %5) #13
  ret void
}