; Function Attrs: nounwind uwtable
define internal fastcc void @ReorderBufferRestoreCleanup(ptr noundef readonly captures(none) %0) unnamed_addr #0 {
  %2 = alloca [1024 x i8], align 16
  %3 = getelementptr inbounds nuw i8, ptr %0, i64 24
  %4 = load i64, ptr %3, align 8
  %5 = load i32, ptr @wal_segment_size, align 4
  %6 = sext i32 %5 to i64
  %7 = udiv i64 %4, %6
  %8 = getelementptr inbounds nuw i8, ptr %0, i64 32
  %9 = load i64, ptr %8, align 8
  %10 = udiv i64 %9, %6
  %.not1 = icmp ugt i64 %7, %10
  br i1 %.not1, label %._crit_edge, label %.lr.ph

.lr.ph:                                           ; preds = %1
  %11 = getelementptr inbounds nuw i8, ptr %0, i64 4
  br label %12

12:                                               ; preds = %.lr.ph, %31
  %.02 = phi i64 [ %7, %.lr.ph ], [ %32, %31 ]
  call void @llvm.lifetime.start.p0(i64 1024, ptr nonnull %2) #19
  %13 = load i32, ptr %11, align 4
  %14 = load i32, ptr @wal_segment_size, align 4
  %15 = sext i32 %14 to i64
  %16 = mul i64 %.02, %15
  %17 = load ptr, ptr @MyReplicationSlot, align 8
  %18 = getelementptr inbounds nuw i8, ptr %17, i64 24
  %19 = lshr i64 %16, 32
  %20 = trunc nuw i64 %19 to i32
  %21 = trunc i64 %16 to i32
  %22 = call i32 (ptr, i64, ptr, ...) @pg_snprintf(ptr noundef nonnull %2, i64 noundef 1024, ptr noundef nonnull @.str.21, ptr noundef nonnull @.str.8, ptr noundef nonnull %18, i32 noundef %13, i32 noundef %20, i32 noundef %21) #19
  %23 = call i32 @unlink(ptr noundef nonnull %2) #19
  %.not7 = icmp eq i32 %23, 0
  br i1 %.not7, label %31, label %24

24:                                               ; preds = %12
  %25 = tail call ptr @__errno_location() #24
  %26 = load i32, ptr %25, align 4
  %.not8 = icmp eq i32 %26, 2
  br i1 %.not8, label %31, label %27

27:                                               ; preds = %24
  %28 = call zeroext i1 @errstart_cold(i32 noundef 21, ptr noundef null) #20
  call void @llvm.assume(i1 %28)
  %29 = call i32 @errcode_for_file_access() #19
  %30 = call i32 (ptr, ...) @errmsg(ptr noundef nonnull @.str.33, ptr noundef nonnull %2) #19
  call void @errfinish(ptr noundef nonnull @.str.6, i32 noundef 4712, ptr noundef nonnull @__func__.ReorderBufferRestoreCleanup) #19
  unreachable

31:                                               ; preds = %24, %12
  call void @llvm.lifetime.end.p0(i64 1024, ptr nonnull %2) #19
  %32 = add i64 %.02, 1
  %.not = icmp ugt i64 %32, %10
  br i1 %.not, label %._crit_edge, label %12, !llvm.loop !43

._crit_edge:                                      ; preds = %31, %1
  ret void
}